; ModuleID = 'source-C-CXX/30/253.c'
source_filename = "source-C-CXX/30/253.c"
target datalayout = "e-m:e-p270:32:32-p271:32:32-p272:64:64-i64:64-f80:128-n8:16:32:64-S128"
target triple = "x86_64-pc-linux-gnu"

%struct.Node = type { [200 x i8], %struct.Node* }

@.str = private unnamed_addr constant [4 x i8] c"end\00", align 1

; Function Attrs: nounwind sspstrong uwtable
define dso_local i32 @Insert(%struct.Node* nocapture %0) local_unnamed_addr #0 {
  %2 = tail call noalias align 16 dereferenceable_or_null(208) i8* @malloc(i64 208) #6
  %3 = bitcast i8* %2 to %struct.Node*
  %4 = getelementptr inbounds %struct.Node, %struct.Node* %3, i64 0, i32 0, i64 0
  %5 = tail call i32 (i8*, ...) bitcast (i32 (...)* @gets to i32 (i8*, ...)*)(i8* %4) #6
  %6 = tail call i32 @strcmp(i8* noundef nonnull dereferenceable(1) %4, i8* noundef nonnull dereferenceable(4) getelementptr inbounds ([4 x i8], [4 x i8]* @.str, i64 0, i64 0)) #7
  %7 = icmp eq i32 %6, 0
  br i1 %7, label %8, label %9

8:                                                ; preds = %1
  tail call void @free(i8* %2) #6
  br label %14

9:                                                ; preds = %1
  %10 = getelementptr inbounds %struct.Node, %struct.Node* %0, i64 0, i32 1
  %11 = load %struct.Node*, %struct.Node** %10, align 8, !tbaa !5
  %12 = getelementptr inbounds %struct.Node, %struct.Node* %3, i64 0, i32 1
  store %struct.Node* %11, %struct.Node** %12, align 8, !tbaa !5
  %13 = bitcast %struct.Node** %10 to i8**
  store i8* %2, i8** %13, align 8, !tbaa !5
  br label %14

14:                                               ; preds = %9, %8
  %15 = phi i32 [ 0, %8 ], [ 1, %9 ]
  ret i32 %15
}

; Function Attrs: inaccessiblememonly mustprogress nofree nounwind willreturn
declare noalias noundef align 16 i8* @malloc(i64 noundef) local_unnamed_addr #1

declare i32 @gets(...) local_unnamed_addr #2

; Function Attrs: argmemonly mustprogress nofree nounwind readonly willreturn
declare i32 @strcmp(i8* nocapture, i8* nocapture) local_unnamed_addr #3

; Function Attrs: inaccessiblemem_or_argmemonly mustprogress nounwind willreturn
declare void @free(i8* nocapture noundef) local_unnamed_addr #4

; Function Attrs: nounwind sspstrong uwtable
define dso_local i32 @main() local_unnamed_addr #0 {
  %1 = tail call noalias align 16 dereferenceable_or_null(208) i8* @malloc(i64 208) #6
  %2 = bitcast i8* %1 to %struct.Node*
  %3 = getelementptr inbounds %struct.Node, %struct.Node* %2, i64 0, i32 0, i64 0
  %4 = tail call i32 (i8*, ...) bitcast (i32 (...)* @gets to i32 (i8*, ...)*)(i8* %3) #6
  %5 = tail call i32 @strcmp(i8* noundef nonnull dereferenceable(1) %3, i8* noundef nonnull dereferenceable(4) getelementptr inbounds ([4 x i8], [4 x i8]* @.str, i64 0, i64 0)) #7
  %6 = icmp eq i32 %5, 0
  br i1 %6, label %17, label %7

7:                                                ; preds = %0, %7
  %8 = phi %struct.Node* [ %12, %7 ], [ %2, %0 ]
  %9 = phi %struct.Node* [ %8, %7 ], [ null, %0 ]
  %10 = getelementptr inbounds %struct.Node, %struct.Node* %8, i64 0, i32 1
  store %struct.Node* %9, %struct.Node** %10, align 8, !tbaa !5
  %11 = tail call noalias align 16 dereferenceable_or_null(208) i8* @malloc(i64 208) #6
  %12 = bitcast i8* %11 to %struct.Node*
  %13 = getelementptr inbounds %struct.Node, %struct.Node* %12, i64 0, i32 0, i64 0
  %14 = tail call i32 (i8*, ...) bitcast (i32 (...)* @gets to i32 (i8*, ...)*)(i8* %13) #6
  %15 = tail call i32 @strcmp(i8* noundef nonnull dereferenceable(1) %13, i8* noundef nonnull dereferenceable(4) getelementptr inbounds ([4 x i8], [4 x i8]* @.str, i64 0, i64 0)) #7
  %16 = icmp eq i32 %15, 0
  br i1 %16, label %17, label %7

17:                                               ; preds = %7, %0
  %18 = phi %struct.Node* [ null, %0 ], [ %8, %7 ]
  %19 = phi i8* [ %1, %0 ], [ %11, %7 ]
  tail call void @free(i8* %19) #6
  %20 = icmp eq %struct.Node* %18, null
  br i1 %20, label %28, label %21

21:                                               ; preds = %17, %21
  %22 = phi %struct.Node* [ %26, %21 ], [ %18, %17 ]
  %23 = getelementptr inbounds %struct.Node, %struct.Node* %22, i64 0, i32 0, i64 0
  %24 = tail call i32 @puts(i8* nonnull %23)
  %25 = getelementptr inbounds %struct.Node, %struct.Node* %22, i64 0, i32 1
  %26 = load %struct.Node*, %struct.Node** %25, align 8, !tbaa !5
  %27 = icmp eq %struct.Node* %26, null
  br i1 %27, label %28, label %21, !llvm.loop !10

28:                                               ; preds = %21, %17
  ret i32 1
}

; Function Attrs: nofree nounwind
declare noundef i32 @puts(i8* nocapture noundef readonly) local_unnamed_addr #5


!llvm.module.flags = !{!0, !1, !2, !3}
!llvm.ident = !{!4}

!0 = !{i32 1, !"wchar_size", i32 4}
!1 = !{i32 7, !"PIC Level", i32 2}
!2 = !{i32 7, !"PIE Level", i32 2}
!3 = !{i32 7, !"uwtable", i32 1}
!4 = !{!"clang version 13.0.0"}
!5 = !{!6, !9, i64 200}
!6 = !{!"Node", !7, i64 0, !9, i64 200}
!7 = !{!"omnipotent char", !8, i64 0}
!8 = !{!"Simple C/C++ TBAA"}
!9 = !{!"any pointer", !7, i64 0}
!10 = distinct !{!10, !11}
!11 = !{!"llvm.loop.mustprogress"}
